; ModuleID = '36/92.c'
source_filename = "36/92.c"
target datalayout = "e-m:e-p270:32:32-p271:32:32-p272:64:64-i64:64-f80:128-n8:16:32:64-S128"
target triple = "x86_64-pc-linux-gnu"

@.str = private unnamed_addr constant [5 x i8] c"%s%s\00", align 1
@.str.1 = private unnamed_addr constant [3 x i8] c"NO\00", align 1
@.str.2 = private unnamed_addr constant [4 x i8] c"YES\00", align 1

; Function Attrs: noinline nounwind uwtable
define dso_local i32 @main() #0 {
  %1 = alloca i32, align 4
  %2 = alloca [100 x i8], align 16
  %3 = alloca [100 x i8], align 16
  %4 = alloca i8*, align 8
  %5 = alloca i8*, align 8
  store i32 0, i32* %1, align 4
  %6 = bitcast [100 x i8]* %2 to i8*
  call void @llvm.memset.p0i8.i64(i8* align 16 %6, i8 0, i64 100, i1 false)
  %7 = bitcast [100 x i8]* %3 to i8*
  call void @llvm.memset.p0i8.i64(i8* align 16 %7, i8 0, i64 100, i1 false)
  %8 = getelementptr inbounds [100 x i8], [100 x i8]* %2, i64 0, i64 0
  %9 = getelementptr inbounds [100 x i8], [100 x i8]* %3, i64 0, i64 0
  %10 = call i32 (i8*, ...) @__isoc99_scanf(i8* getelementptr inbounds ([5 x i8], [5 x i8]* @.str, i64 0, i64 0), i8* %8, i8* %9)
  %11 = getelementptr inbounds [100 x i8], [100 x i8]* %2, i64 0, i64 0
  %12 = call i64 @strlen(i8* %11) #4
  %13 = getelementptr inbounds [100 x i8], [100 x i8]* %3, i64 0, i64 0
  %14 = call i64 @strlen(i8* %13) #4
  %15 = icmp ne i64 %12, %14
  br i1 %15, label %16, label %18

16:                                               ; preds = %0
  %17 = call i32 (i8*, ...) @printf(i8* getelementptr inbounds ([3 x i8], [3 x i8]* @.str.1, i64 0, i64 0))
  store i32 0, i32* %1, align 4
  br label %48

18:                                               ; preds = %0
  %19 = getelementptr inbounds [100 x i8], [100 x i8]* %2, i64 0, i64 0
  %20 = call i32 @change(i8* %19)
  %21 = getelementptr inbounds [100 x i8], [100 x i8]* %3, i64 0, i64 0
  %22 = call i32 @change(i8* %21)
  %23 = getelementptr inbounds [100 x i8], [100 x i8]* %2, i64 0, i64 0
  store i8* %23, i8** %4, align 8
  %24 = getelementptr inbounds [100 x i8], [100 x i8]* %3, i64 0, i64 0
  store i8* %24, i8** %5, align 8
  br label %25

25:                                               ; preds = %41, %18
  %26 = load i8*, i8** %4, align 8
  %27 = load i8, i8* %26, align 1
  %28 = sext i8 %27 to i32
  %29 = icmp ne i32 %28, 0
  br i1 %29, label %30, label %46

30:                                               ; preds = %25
  %31 = load i8*, i8** %4, align 8
  %32 = load i8, i8* %31, align 1
  %33 = sext i8 %32 to i32
  %34 = load i8*, i8** %5, align 8
  %35 = load i8, i8* %34, align 1
  %36 = sext i8 %35 to i32
  %37 = icmp ne i32 %33, %36
  br i1 %37, label %38, label %40

38:                                               ; preds = %30
  %39 = call i32 (i8*, ...) @printf(i8* getelementptr inbounds ([3 x i8], [3 x i8]* @.str.1, i64 0, i64 0))
  store i32 0, i32* %1, align 4
  br label %48

40:                                               ; preds = %30
  br label %41

41:                                               ; preds = %40
  %42 = load i8*, i8** %4, align 8
  %43 = getelementptr inbounds i8, i8* %42, i32 1
  store i8* %43, i8** %4, align 8
  %44 = load i8*, i8** %5, align 8
  %45 = getelementptr inbounds i8, i8* %44, i32 1
  store i8* %45, i8** %5, align 8
  br label %25

46:                                               ; preds = %25
  %47 = call i32 (i8*, ...) @printf(i8* getelementptr inbounds ([4 x i8], [4 x i8]* @.str.2, i64 0, i64 0))
  store i32 1, i32* %1, align 4
  br label %48

48:                                               ; preds = %46, %38, %16
  %49 = load i32, i32* %1, align 4
  ret i32 %49
}

; Function Attrs: argmemonly nounwind willreturn
declare void @llvm.memset.p0i8.i64(i8* nocapture writeonly, i8, i64, i1 immarg) #1

declare dso_local i32 @__isoc99_scanf(i8*, ...) #2

; Function Attrs: nounwind readonly
declare dso_local i64 @strlen(i8*) #3

declare dso_local i32 @printf(i8*, ...) #2

; Function Attrs: noinline nounwind uwtable
define dso_local i32 @change(i8* %0) #0 {
  %2 = alloca i8*, align 8
  %3 = alloca i8*, align 8
  %4 = alloca i8*, align 8
  %5 = alloca i8, align 1
  store i8* %0, i8** %2, align 8
  %6 = load i8*, i8** %2, align 8
  store i8* %6, i8** %3, align 8
  br label %7

7:                                                ; preds = %42, %1
  %8 = load i8*, i8** %3, align 8
  %9 = getelementptr inbounds i8, i8* %8, i64 1
  %10 = load i8, i8* %9, align 1
  %11 = sext i8 %10 to i32
  %12 = icmp ne i32 %11, 0
  br i1 %12, label %13, label %45

13:                                               ; preds = %7
  %14 = load i8*, i8** %3, align 8
  %15 = getelementptr inbounds i8, i8* %14, i64 1
  store i8* %15, i8** %4, align 8
  br label %16

16:                                               ; preds = %38, %13
  %17 = load i8*, i8** %4, align 8
  %18 = load i8, i8* %17, align 1
  %19 = sext i8 %18 to i32
  %20 = icmp ne i32 %19, 0
  br i1 %20, label %21, label %41

21:                                               ; preds = %16
  %22 = load i8*, i8** %4, align 8
  %23 = load i8, i8* %22, align 1
  %24 = sext i8 %23 to i32
  %25 = load i8*, i8** %3, align 8
  %26 = load i8, i8* %25, align 1
  %27 = sext i8 %26 to i32
  %28 = icmp sgt i32 %24, %27
  br i1 %28, label %29, label %37

29:                                               ; preds = %21
  %30 = load i8*, i8** %4, align 8
  %31 = load i8, i8* %30, align 1
  store i8 %31, i8* %5, align 1
  %32 = load i8*, i8** %3, align 8
  %33 = load i8, i8* %32, align 1
  %34 = load i8*, i8** %4, align 8
  store i8 %33, i8* %34, align 1
  %35 = load i8, i8* %5, align 1
  %36 = load i8*, i8** %3, align 8
  store i8 %35, i8* %36, align 1
  br label %37

37:                                               ; preds = %29, %21
  br label %38

38:                                               ; preds = %37
  %39 = load i8*, i8** %4, align 8
  %40 = getelementptr inbounds i8, i8* %39, i32 1
  store i8* %40, i8** %4, align 8
  br label %16

41:                                               ; preds = %16
  br label %42

42:                                               ; preds = %41
  %43 = load i8*, i8** %3, align 8
  %44 = getelementptr inbounds i8, i8* %43, i32 1
  store i8* %44, i8** %3, align 8
  br label %7

45:                                               ; preds = %7
  ret i32 0
}

; Function Attrs: noinline nounwind uwtable
define dso_local i32 @judge(i32* %0, i32 %1, i32* %2) #0 {
  %4 = alloca i32*, align 8
  %5 = alloca i32, align 4
  %6 = alloca i32*, align 8
  store i32* %0, i32** %4, align 8
  store i32 %1, i32* %5, align 4
  store i32* %2, i32** %6, align 8
  ret i32 0
}


!llvm.module.flags = !{!0}
!llvm.ident = !{!1}

!0 = !{i32 1, !"wchar_size", i32 4}
!1 = !{!"clang version 10.0.0-4ubuntu1 "}
